target datalayout = "e-m:e-p270:32:32-p271:32:32-p272:64:64-i64:64-i128:128-f80:128-n8:16:32:64-S128"
target triple = "x86_64-pc-linux-gnu"

%class.QObject = type { ptr, %class.QScopedPointer }
%class.QScopedPointer = type { ptr }
%class.QObjectData = type { ptr, ptr, ptr, %class.QList, i32, i32, ptr, %class.QBindingStorage }
%class.QList = type { %struct.QArrayDataPointer.0 }
%struct.QArrayDataPointer.0 = type { ptr, ptr, i64 }
%class.QBindingStorage = type { ptr, ptr }

; Function Attrs: mustprogress nounwind uwtable
define linkonce_odr noundef ptr @_ZNK14QScopedPointerI11QObjectData21QScopedPointerDeleterIS0_EEptEv(ptr noundef nonnull align 8 dereferenceable(8) %0) #2 comdat align 2 {
  %2 = alloca ptr, align 8
  store ptr %0, ptr %2, align 8
  %3 = load ptr, ptr %2, align 8
  %4 = getelementptr inbounds %class.QScopedPointer, ptr %3, i32 0, i32 0
  %5 = load ptr, ptr %4, align 8
  ret ptr %5
}

; Function Attrs: mustprogress uwtable
define noundef ptr @_ZNK11CMainWindow10metaObjectEv(ptr noundef nonnull align 8 dereferenceable(288) %0) unnamed_addr #0 align 2 {
  %2 = alloca ptr, align 8
  store ptr %0, ptr %2, align 8
  %3 = load ptr, ptr %2, align 8
  %4 = getelementptr inbounds %class.QObject, ptr %3, i32 0, i32 1
  %5 = call noundef ptr @_ZNK14QScopedPointerI11QObjectData21QScopedPointerDeleterIS0_EEptEv(ptr noundef nonnull align 8 dereferenceable(8) %4) #10
  %6 = getelementptr inbounds %class.QObjectData, ptr %5, i32 0, i32 6
  %7 = load ptr, ptr %6, align 8
  %8 = icmp ne ptr %7, null
  br i1 %8, label %9, label %13

9:                                                ; preds = %1
  %10 = getelementptr inbounds %class.QObject, ptr %3, i32 0, i32 1
  %11 = call noundef ptr @_ZNK14QScopedPointerI11QObjectData21QScopedPointerDeleterIS0_EEptEv(ptr noundef nonnull align 8 dereferenceable(8) %10) #10
  %12 = call noundef ptr @_ZNK11QObjectData17dynamicMetaObjectEv(ptr noundef nonnull align 8 dereferenceable(80) %11)
  br label %14

13:                                               ; preds = %1
  br label %14

14:                                               ; preds = %13, %9
  %15 = phi ptr [ %12, %9 ], [ @_ZN11CMainWindow16staticMetaObjectE, %13 ]
  ret ptr %15
}